; Function Attrs: nounwind uwtable
define internal range(i32 -21, 903) i32 @cvNlsLSolveSensSim(ptr noundef readonly captures(none) %0, ptr noundef %1) #0 {
  %3 = icmp eq ptr %1, null
  br i1 %3, label %4, label %5

4:                                                ; preds = %2
  tail call void (ptr, i32, i32, ptr, ptr, ptr, ...) @cvProcessError(ptr noundef null, i32 noundef -21, i32 noundef 343, ptr noundef nonnull @__func__.cvNlsLSolveSensSim, ptr noundef nonnull @.str, ptr noundef nonnull @.str.1) #2
  br label %.loopexit

5:                                                ; preds = %2
  %6 = load ptr, ptr %0, align 8
  %7 = load ptr, ptr %6, align 8
  %8 = load ptr, ptr %7, align 8
  %9 = getelementptr inbounds nuw i8, ptr %1, i64 2000
  %10 = load ptr, ptr %9, align 8
  %11 = getelementptr inbounds nuw i8, ptr %1, i64 440
  %12 = load ptr, ptr %11, align 8
  %13 = getelementptr inbounds nuw i8, ptr %1, i64 448
  %14 = load ptr, ptr %13, align 8
  %15 = getelementptr inbounds nuw i8, ptr %1, i64 472
  %16 = load ptr, ptr %15, align 8
  %17 = tail call i32 %10(ptr noundef nonnull %1, ptr noundef %8, ptr noundef %12, ptr noundef %14, ptr noundef %16) #2
  %18 = icmp slt i32 %17, 0
  br i1 %18, label %.loopexit, label %19

19:                                               ; preds = %5
  %.not = icmp eq i32 %17, 0
  br i1 %.not, label %20, label %.loopexit

20:                                               ; preds = %19
  %21 = load ptr, ptr %0, align 8
  %22 = load ptr, ptr %21, align 8
  %23 = getelementptr inbounds nuw i8, ptr %22, i64 8
  %24 = getelementptr inbounds nuw i8, ptr %1, i64 144
  %25 = load i32, ptr %24, align 8
  %26 = icmp sgt i32 %25, 0
  br i1 %26, label %.lr.ph, label %.loopexit

.lr.ph:                                           ; preds = %20
  %27 = getelementptr inbounds nuw i8, ptr %1, i64 752
  br label %32

28:                                               ; preds = %43
  %indvars.iv.next = add nuw nsw i64 %indvars.iv, 1
  %29 = load i32, ptr %24, align 8
  %30 = sext i32 %29 to i64
  %31 = icmp slt i64 %indvars.iv.next, %30
  br i1 %31, label %32, label %.loopexit

32:                                               ; preds = %.lr.ph, %28
  %indvars.iv = phi i64 [ 0, %.lr.ph ], [ %indvars.iv.next, %28 ]
  %33 = load ptr, ptr %9, align 8
  %34 = getelementptr inbounds nuw ptr, ptr %23, i64 %indvars.iv
  %35 = load ptr, ptr %34, align 8
  %36 = load ptr, ptr %27, align 8
  %37 = getelementptr inbounds nuw ptr, ptr %36, i64 %indvars.iv
  %38 = load ptr, ptr %37, align 8
  %39 = load ptr, ptr %13, align 8
  %40 = load ptr, ptr %15, align 8
  %41 = tail call i32 %33(ptr noundef nonnull %1, ptr noundef %35, ptr noundef %38, ptr noundef %39, ptr noundef %40) #2
  %42 = icmp slt i32 %41, 0
  br i1 %42, label %.loopexit, label %43

43:                                               ; preds = %32
  %.not29 = icmp eq i32 %41, 0
  br i1 %.not29, label %28, label %.loopexit

.loopexit:                                        ; preds = %32, %43, %28, %20, %19, %5, %4
  %.0 = phi i32 [ -21, %4 ], [ -7, %5 ], [ 902, %19 ], [ 0, %20 ], [ -7, %32 ], [ 902, %43 ], [ 0, %28 ]
  ret i32 %.0
}